; Function Attrs: mustprogress uwtable
define noundef i64 @_ZNK8facebook5velox9MapVector11hashValueAtEi(ptr noundef nonnull align 8 dereferenceable(169) %this, i32 noundef %index) unnamed_addr #0 align 2 {
entry:
  %vtable = load ptr, ptr %this, align 8
  %vfn = getelementptr inbounds i8, ptr %vtable, i64 32
  %0 = load ptr, ptr %vfn, align 8
  %call = tail call noundef zeroext i1 %0(ptr noundef nonnull align 8 dereferenceable(99) %this, i32 noundef %index)
  br i1 %call, label %return, label %if.end

if.end:                                           ; preds = %entry
  %rawOffsets_ = getelementptr inbounds i8, ptr %this, i64 112
  %1 = load ptr, ptr %rawOffsets_, align 8
  %idxprom = sext i32 %index to i64
  %arrayidx = getelementptr inbounds i32, ptr %1, i64 %idxprom
  %2 = load i32, ptr %arrayidx, align 4
  %rawSizes_ = getelementptr inbounds i8, ptr %this, i64 128
  %3 = load ptr, ptr %rawSizes_, align 8
  %arrayidx3 = getelementptr inbounds i32, ptr %3, i64 %idxprom
  %4 = load i32, ptr %arrayidx3, align 4
  %keys_ = getelementptr inbounds i8, ptr %this, i64 136
  %5 = load ptr, ptr %keys_, align 8
  %cmp4.i = icmp sgt i32 %4, 0
  br i1 %cmp4.i, label %for.body.i, label %return

for.body.i:                                       ; preds = %if.end, %for.body.i
  %hash.addr.06.i = phi i64 [ %add4.i.i, %for.body.i ], [ 1, %if.end ]
  %i.05.i = phi i32 [ %inc.i, %for.body.i ], [ 0, %if.end ]
  %add.i = add nsw i32 %i.05.i, %2
  %vtable.i = load ptr, ptr %5, align 8
  %vfn.i = getelementptr inbounds i8, ptr %vtable.i, i64 104
  %6 = load ptr, ptr %vfn.i, align 8
  %call.i = tail call noundef i64 %6(ptr noundef nonnull align 8 dereferenceable(99) %5, i32 noundef %add.i)
  %add.i.i = add i64 %call.i, %hash.addr.06.i
  %mul.i.i = mul i64 %add.i.i, 2779
  %mul2.i.i = shl i64 %hash.addr.06.i, 1
  %mul3.i.i = mul i64 %mul2.i.i, %call.i
  %add1.i.i = add i64 %mul3.i.i, 3860031
  %add4.i.i = add i64 %add1.i.i, %mul.i.i
  %inc.i = add nuw nsw i32 %i.05.i, 1
  %exitcond.not.i = icmp eq i32 %inc.i, %4
  br i1 %exitcond.not.i, label %_ZN8facebook5velox12_GLOBAL__N_19hashArrayEmRKNS0_10BaseVectorEii.exit, label %for.body.i, !llvm.loop !77

_ZN8facebook5velox12_GLOBAL__N_19hashArrayEmRKNS0_10BaseVectorEii.exit: ; preds = %for.body.i
  %values_ = getelementptr inbounds i8, ptr %this, i64 152
  %7 = load ptr, ptr %values_, align 8
  br label %for.body.i7

for.body.i7:                                      ; preds = %_ZN8facebook5velox12_GLOBAL__N_19hashArrayEmRKNS0_10BaseVectorEii.exit, %for.body.i7
  %hash.addr.06.i8 = phi i64 [ %add4.i.i19, %for.body.i7 ], [ %add4.i.i, %_ZN8facebook5velox12_GLOBAL__N_19hashArrayEmRKNS0_10BaseVectorEii.exit ]
  %i.05.i9 = phi i32 [ %inc.i20, %for.body.i7 ], [ 0, %_ZN8facebook5velox12_GLOBAL__N_19hashArrayEmRKNS0_10BaseVectorEii.exit ]
  %add.i10 = add nsw i32 %i.05.i9, %2
  %vtable.i11 = load ptr, ptr %7, align 8
  %vfn.i12 = getelementptr inbounds i8, ptr %vtable.i11, i64 104
  %8 = load ptr, ptr %vfn.i12, align 8
  %call.i13 = tail call noundef i64 %8(ptr noundef nonnull align 8 dereferenceable(99) %7, i32 noundef %add.i10)
  %add.i.i14 = add i64 %call.i13, %hash.addr.06.i8
  %mul.i.i15 = mul i64 %add.i.i14, 2779
  %mul2.i.i16 = shl i64 %hash.addr.06.i8, 1
  %mul3.i.i17 = mul i64 %mul2.i.i16, %call.i13
  %add1.i.i18 = add i64 %mul3.i.i17, 3860031
  %add4.i.i19 = add i64 %add1.i.i18, %mul.i.i15
  %inc.i20 = add nuw nsw i32 %i.05.i9, 1
  %exitcond.not.i21 = icmp eq i32 %inc.i20, %4
  br i1 %exitcond.not.i21, label %return, label %for.body.i7, !llvm.loop !77

return:                                           ; preds = %for.body.i7, %if.end, %entry
  %retval.0 = phi i64 [ 1, %entry ], [ 1, %if.end ], [ %add4.i.i19, %for.body.i7 ]
  ret i64 %retval.0
}